; Function Attrs: nofree norecurse nosync nounwind memory(read, argmem: readwrite, inaccessiblemem: none) uwtable
define hidden range(i32 0, 2) i32 @MuxImageGetNth(ptr noundef readonly captures(none) %0, i32 noundef %1, ptr noundef writeonly captures(none) %2) local_unnamed_addr #12 {
  %4 = icmp eq i32 %1, 0
  %.pre.i = load ptr, ptr %0, align 8, !tbaa !43
  br i1 %4, label %5, label %MuxImageCount.exit.i

5:                                                ; preds = %3
  %.not19.i.i = icmp eq ptr %.pre.i, null
  br i1 %.not19.i.i, label %SearchImageToGetOrDelete.exit.thread, label %.lr.ph24.i.i

.lr.ph24.i.i:                                     ; preds = %5, %.lr.ph24.i.i
  %.022.i.i = phi i32 [ %6, %.lr.ph24.i.i ], [ 0, %5 ]
  %.01220.i.i = phi ptr [ %8, %.lr.ph24.i.i ], [ %.pre.i, %5 ]
  %6 = add nuw nsw i32 %.022.i.i, 1
  %7 = getelementptr inbounds nuw i8, ptr %.01220.i.i, i64 48
  %8 = load ptr, ptr %7, align 8, !tbaa !39
  %.not.i.i = icmp eq ptr %8, null
  br i1 %.not.i.i, label %MuxImageCount.exit.i, label %.lr.ph24.i.i, !llvm.loop !42

MuxImageCount.exit.i:                             ; preds = %.lr.ph24.i.i, %3
  %.018.i = phi i32 [ %1, %3 ], [ %6, %.lr.ph24.i.i ]
  %.not25.i = icmp eq ptr %.pre.i, null
  br i1 %.not25.i, label %SearchImageToGetOrDelete.exit.thread, label %.lr.ph.i.preheader

.lr.ph.i.preheader:                               ; preds = %MuxImageCount.exit.i
  %.not22.i7 = icmp eq i32 %.018.i, 1
  br i1 %.not22.i7, label %SearchImageToGetOrDelete.exit, label %.lr.ph

.lr.ph.i:                                         ; preds = %.lr.ph
  %9 = add i32 %10, 1
  %.not22.i = icmp eq i32 %9, %.018.i
  br i1 %.not22.i, label %SearchImageToGetOrDelete.exit, label %.lr.ph

.lr.ph:                                           ; preds = %.lr.ph.i.preheader, %.lr.ph.i
  %10 = phi i32 [ %9, %.lr.ph.i ], [ 1, %.lr.ph.i.preheader ]
  %11 = phi ptr [ %13, %.lr.ph.i ], [ %.pre.i, %.lr.ph.i.preheader ]
  %12 = getelementptr inbounds nuw i8, ptr %11, i64 48
  %13 = load ptr, ptr %12, align 8, !tbaa !43
  %.not.i = icmp eq ptr %13, null
  br i1 %.not.i, label %SearchImageToGetOrDelete.exit.thread, label %.lr.ph.i

SearchImageToGetOrDelete.exit:                    ; preds = %.lr.ph.i, %.lr.ph.i.preheader
  %14 = phi ptr [ %.pre.i, %.lr.ph.i.preheader ], [ %13, %.lr.ph.i ]
  store ptr %14, ptr %2, align 8, !tbaa !43
  br label %SearchImageToGetOrDelete.exit.thread

SearchImageToGetOrDelete.exit.thread:             ; preds = %.lr.ph, %MuxImageCount.exit.i, %5, %SearchImageToGetOrDelete.exit
  %.0 = phi i32 [ 1, %SearchImageToGetOrDelete.exit ], [ 0, %5 ], [ 0, %MuxImageCount.exit.i ], [ 0, %.lr.ph ]
  ret i32 %.0
}